target datalayout = "e-m:e-p270:32:32-p271:32:32-p272:64:64-i64:64-i128:128-f80:128-n8:16:32:64-S128"
target triple = "x86_64-pc-linux-gnu"

%struct.pbl_node_t = type { i32, ptr, ptr, ptr, ptr, ptr, ptr, i32 }
%struct.pbl_option_descriptor_t = type { %struct.pbl_node_t, ptr }

; Function Attrs: null_pointer_is_valid sspstrong uwtable
define internal void @pbl_init_node(ptr noundef %0, ptr noundef %1, i32 noundef %2, i32 noundef %3, ptr noundef %4) #0 {
  %6 = alloca ptr, align 8
  %7 = alloca ptr, align 8
  %8 = alloca i32, align 4
  %9 = alloca i32, align 4
  %10 = alloca ptr, align 8
  store ptr %0, ptr %6, align 8
  store ptr %1, ptr %7, align 8
  store i32 %2, ptr %8, align 4
  store i32 %3, ptr %9, align 4
  store ptr %4, ptr %10, align 8
  %11 = load i32, ptr %9, align 4
  %12 = load ptr, ptr %6, align 8
  %13 = getelementptr inbounds nuw %struct.pbl_node_t, ptr %12, i32 0, i32 0
  store i32 %11, ptr %13, align 8
  %14 = load ptr, ptr %10, align 8
  %15 = call noalias ptr @g_strdup(ptr noundef %14)
  %16 = load ptr, ptr %6, align 8
  %17 = getelementptr inbounds nuw %struct.pbl_node_t, ptr %16, i32 0, i32 1
  store ptr %15, ptr %17, align 8
  %18 = load ptr, ptr %7, align 8
  %19 = load ptr, ptr %6, align 8
  %20 = getelementptr inbounds nuw %struct.pbl_node_t, ptr %19, i32 0, i32 6
  store ptr %18, ptr %20, align 8
  %21 = load i32, ptr %8, align 4
  %22 = icmp sgt i32 %21, -1
  br i1 %22, label %23, label %25

23:                                               ; preds = %5
  %24 = load i32, ptr %8, align 4
  br label %26

25:                                               ; preds = %5
  br label %26

26:                                               ; preds = %25, %23
  %27 = phi i32 [ %24, %23 ], [ -1, %25 ]
  %28 = load ptr, ptr %6, align 8
  %29 = getelementptr inbounds nuw %struct.pbl_node_t, ptr %28, i32 0, i32 7
  store i32 %27, ptr %29, align 8
  ret void
}

; Function Attrs: null_pointer_is_valid sspstrong uwtable
define hidden ptr @pbl_create_option_node(ptr noundef %0, i32 noundef %1, ptr noundef %2, ptr noundef %3) #0 {
  %5 = alloca ptr, align 8
  %6 = alloca i32, align 4
  %7 = alloca ptr, align 8
  %8 = alloca ptr, align 8
  %9 = alloca ptr, align 8
  %10 = alloca i64, align 8
  %11 = alloca i64, align 8
  %12 = alloca ptr, align 8
  %13 = alloca ptr, align 8
  store ptr %0, ptr %5, align 8
  store i32 %1, ptr %6, align 4
  store ptr %2, ptr %7, align 8
  store ptr %3, ptr %8, align 8
  call void @llvm.lifetime.start.p0(i64 8, ptr %9) #13
  call void @llvm.lifetime.start.p0(i64 8, ptr %10) #13
  store i64 1, ptr %10, align 8
  call void @llvm.lifetime.start.p0(i64 8, ptr %11) #13
  store i64 72, ptr %11, align 8
  call void @llvm.lifetime.start.p0(i64 8, ptr %12) #13
  %14 = load i64, ptr %11, align 8
  %15 = icmp eq i64 %14, 1
  br i1 %15, label %16, label %19

16:                                               ; preds = %4
  %17 = load i64, ptr %10, align 8
  %18 = call noalias ptr @g_malloc0(i64 noundef %17) #14
  store ptr %18, ptr %12, align 8
  br label %40

19:                                               ; preds = %4
  %20 = load i64, ptr %10, align 8
  %21 = call i1 @llvm.is.constant.i64(i64 %20)
  br i1 %21, label %22, label %35

22:                                               ; preds = %19
  %23 = load i64, ptr %11, align 8
  %24 = icmp eq i64 %23, 0
  br i1 %24, label %30, label %25

25:                                               ; preds = %22
  %26 = load i64, ptr %10, align 8
  %27 = load i64, ptr %11, align 8
  %28 = udiv i64 -1, %27
  %29 = icmp ule i64 %26, %28
  br i1 %29, label %30, label %35

30:                                               ; preds = %25, %22
  %31 = load i64, ptr %10, align 8
  %32 = load i64, ptr %11, align 8
  %33 = mul i64 %31, %32
  %34 = call noalias ptr @g_malloc0(i64 noundef %33) #14
  store ptr %34, ptr %12, align 8
  br label %39

35:                                               ; preds = %25, %19
  %36 = load i64, ptr %10, align 8
  %37 = load i64, ptr %11, align 8
  %38 = call noalias ptr @g_malloc0_n(i64 noundef %36, i64 noundef %37) #15
  store ptr %38, ptr %12, align 8
  br label %39

39:                                               ; preds = %35, %30
  br label %40

40:                                               ; preds = %39, %16
  %41 = load ptr, ptr %12, align 8
  store ptr %41, ptr %13, align 8
  call void @llvm.lifetime.end.p0(i64 8, ptr %12) #13
  call void @llvm.lifetime.end.p0(i64 8, ptr %11) #13
  call void @llvm.lifetime.end.p0(i64 8, ptr %10) #13
  %42 = load ptr, ptr %13, align 8
  store ptr %42, ptr %9, align 8
  %43 = load ptr, ptr %9, align 8
  %44 = getelementptr inbounds nuw %struct.pbl_option_descriptor_t, ptr %43, i32 0, i32 0
  %45 = load ptr, ptr %5, align 8
  %46 = load i32, ptr %6, align 4
  %47 = load ptr, ptr %7, align 8
  call void @pbl_init_node(ptr noundef %44, ptr noundef %45, i32 noundef %46, i32 noundef 11, ptr noundef %47)
  %48 = load ptr, ptr %8, align 8
  %49 = icmp ne ptr %48, null
  br i1 %49, label %50, label %55

50:                                               ; preds = %40
  %51 = load ptr, ptr %8, align 8
  %52 = call noalias ptr @g_strdup(ptr noundef %51)
  %53 = load ptr, ptr %9, align 8
  %54 = getelementptr inbounds nuw %struct.pbl_option_descriptor_t, ptr %53, i32 0, i32 1
  store ptr %52, ptr %54, align 8
  br label %55

55:                                               ; preds = %50, %40
  %56 = load ptr, ptr %9, align 8
  call void @llvm.lifetime.end.p0(i64 8, ptr %9) #13
  ret ptr %56
}