; Function Attrs: null_pointer_is_valid sspstrong uwtable
define hidden noalias noundef ptr @pbl_create_option_node(ptr noundef %0, i32 noundef %1, ptr noundef %2, ptr noundef %3) local_unnamed_addr #0 {
  %5 = tail call noalias dereferenceable_or_null(72) ptr @g_malloc0(i64 noundef 72) #13
  store i32 11, ptr %5, align 8
  %6 = tail call noalias ptr @g_strdup(ptr noundef %2)
  %7 = getelementptr inbounds nuw i8, ptr %5, i64 8
  store ptr %6, ptr %7, align 8
  %8 = getelementptr inbounds nuw i8, ptr %5, i64 48
  store ptr %0, ptr %8, align 8
  %9 = tail call i32 @llvm.smax.i32(i32 %1, i32 -1)
  %10 = getelementptr inbounds nuw i8, ptr %5, i64 56
  store i32 %9, ptr %10, align 8
  %.not = icmp eq ptr %3, null
  br i1 %.not, label %14, label %11

11:                                               ; preds = %4
  %12 = tail call noalias ptr @g_strdup(ptr noundef nonnull %3)
  %13 = getelementptr inbounds nuw i8, ptr %5, i64 64
  store ptr %12, ptr %13, align 8
  br label %14

14:                                               ; preds = %11, %4
  ret ptr %5
}